(dp1
S'Move Pivot To Vertices'
p2
I7
sS'Add Blinn Shader to Selected Object'
p3
I1
sS'NURBS Sphere'
p4
I14
sS'Mirror +X'
p5
I7
sS'Command Shell'
p6
I1
sS'Mirror X'
p7
I1
sS'Mirror Z'
p8
I8
sS'Mirror -Y'
p9
I1
sS'Create Lightning Effect'
p10
I1
sS'Mirror -Z'
p11
I1
sS'ThibH - Snap to Center of World'
p12
I10
sS'Lattice'
p13
I6
sS'NURBS Cube'
p14
I19
sS'Combine'
p15
I12
sS'Add Lambert Shader to Selected Object'
p16
I2
sS'Add Layered Shader to Selected Object'
p17
I2
sS'Toggle Grid'
p18
I3
sS'Add Anisotropic Shader to Selected Object'
p19
I2
sS'Hide Lattices'
p20
I2
sS'Area Light'
p21
I1
sS'Reset Transformations'
p22
I2
sS'Mirror +Z'
p23
I1
sS'Cube'
p24
I141
sS'Aim Constraint'
p25
I2
sS'Separate'
p26
I6
sS'CV Curve Tool'
p27
I3
sS'NURBS Torus'
p28
I1
sS'Locator'
p29
I9
sS'Delete History'
p30
I10
sS'Attribute SpreadSheet'
p31
I1
sS'Create Polygon Tool'
p32
I1
sS'Center Pivot'
p33
I14
sS'Freeze Transformations'
p34
I16
sS'Add Phong Shader to Selected Object'
p35
I2
sS'ThibH - Renamer'
p36
I12
sS'Render Settings'
p37
I5
sS'Bevel'
p38
I8
sS'ThibH - Create Basic Scene'
p39
I17
sS'Add Divisions'
p40
I1
sS'Add Lambert Shader to Selected Objects'
p41
I6
sS'Plugin Manager'
p42
I2
sS'Add Surface Shader to Selected Object'
p43
I2
sS'Hotkey Editor'
p44
I2
sS'Point Light'
p45
I1
sS'Snap Together Tool'
p46
I1
sS'Render View'
p47
I2
sS'ThibH - Create Locator on Selected Vertices'
p48
I2
sS'Show Lattices'
p49
I2
sS'Graph Editor'
p50
I7
sS'Set Framerate to 24'
p51
I1
sS'Particles Goal'
p52
I1
sS'Soften Edge'
p53
I4
sS'Insert Edge Loop Tools'
p54
I1
sS'Paint Hair Follicles'
p55
I1
sS'Create Hair'
p56
I2
sS'Outliner'
p57
I16
sS'Align Objects'
p58
I1
sS'Add Blinn Shader to Selected Objects'
p59
I6
sS'Hypergraph Hierarchy'
p60
I1
sS'Smooth Polygons'
p61
I10
sS'Sphere'
p62
I46
sS'ThibH - Fill Selection and Close Holes'
p63
I5
sS'Node Editor'
p64
I1
sS'Add Lambert Material to Selected Object'
p65
I1
sS'Add Surface Shader to Selected Objects'
p66
I1
sS'Add Phong Shader to Selected Objects'
p67
I1
s.